ccopy_reg
_reconstructor
p0
(cgoogle.oauth2.credentials
Credentials
p1
c__builtin__
object
p2
Ntp3
Rp4
(dp5
S'_token_uri'
p6
Vhttps://oauth2.googleapis.com/token
p7
sS'_scopes'
p8
(lp9
S'https://www.googleapis.com/auth/spreadsheets.readonly'
p10
asS'_id_token'
p11
NsS'token'
p12
Vya29.GlzZBhzQR9Jl-S2vl8xJ0XCiTSy57e0UwGuMCbpHgkuxlmyd1YjcONgnNFX6gGD3MIV5FRWveFtkHtmUGX9bpS7qYuqyFS7DRZtRcQbvCZjVv6F4isQgwCo1Z3Yxyw
p13
sS'_refresh_token'
p14
V1/j3PyhY1nZk6pMzxiediEraHVKWT5eexGTawQXxnAV34
p15
sS'_client_secret'
p16
VBt90Rbiu8pyOdR5Y09Dwmrlk
p17
sS'_client_id'
p18
V951705947274-tlptk00on0p5douu61cuktj445mg6skn.apps.googleusercontent.com
p19
sS'expiry'
p20
cdatetime
datetime
p21
(S'\x07\xe3\x03\x1b\x16\x16#\x06\xee\x18'
p22
tp23
Rp24
sb.