ccopy_reg
_reconstructor
p0
(cgoogle.oauth2.credentials
Credentials
p1
c__builtin__
object
p2
Ntp3
Rp4
(dp5
S'_token_uri'
p6
Vhttps://oauth2.googleapis.com/token
p7
sS'_client_secret'
p8
VBt90Rbiu8pyOdR5Y09Dwmrlk
p9
sS'_id_token'
p10
NsS'token'
p11
Vya29.GlvXBkfy_9T1XYo5yRUygaGwqL108jc45qDHxIa50dB1y9jnmcAu8Mz_LVRUOitwnoOOO4hZXL-GJV7hNpxuZXyrAcjZS-UrLcnThDrF__8ViVINOsvkt3QQMIn4
p12
sS'_refresh_token'
p13
V1/j3PyhY1nZk6pMzxiediEraHVKWT5eexGTawQXxnAV34
p14
sS'_scopes'
p15
(lp16
S'https://www.googleapis.com/auth/spreadsheets.readonly'
p17
asS'_client_id'
p18
V951705947274-tlptk00on0p5douu61cuktj445mg6skn.apps.googleusercontent.com
p19
sS'expiry'
p20
cdatetime
datetime
p21
(S'\x07\xe3\x03\x19\x0c\x01\x1d\x06AE'
p22
tp23
Rp24
sb.