ccopy_reg
_reconstructor
p0
(cgoogle.oauth2.credentials
Credentials
p1
c__builtin__
object
p2
Ntp3
Rp4
(dp5
S'_token_uri'
p6
Vhttps://oauth2.googleapis.com/token
p7
sS'_scopes'
p8
(lp9
S'https://www.googleapis.com/auth/spreadsheets.readonly'
p10
asS'_id_token'
p11
NsS'token'
p12
Vya29.GlzfBtGvuiG8ELMIGqFXue1u1mbnpXUt3IBHWwb1P8h1WTg69wkoOmO7Df7BT7uERrV4-WtsWhnwQhW-a-l30GumsAuX48xnA_mTnUBmOm1T7eRI24ZA0lMARNGD9w
p13
sS'_refresh_token'
p14
V1/j3PyhY1nZk6pMzxiediEraHVKWT5eexGTawQXxnAV34
p15
sS'_client_secret'
p16
VBt90Rbiu8pyOdR5Y09Dwmrlk
p17
sS'_client_id'
p18
V951705947274-tlptk00on0p5douu61cuktj445mg6skn.apps.googleusercontent.com
p19
sS'expiry'
p20
cdatetime
datetime
p21
(S'\x07\xe3\x04\x02\x024,\x04\x1b\xf7'
p22
tp23
Rp24
sb.